target datalayout = "e-m:e-p270:32:32-p271:32:32-p272:64:64-i64:64-i128:128-f80:128-n8:16:32:64-S128"
target triple = "x86_64-pc-linux-gnu"

@.str.56 = private unnamed_addr constant [2 x i8] c"\0A\00", align 1
@.str.624 = private unnamed_addr constant [32 x i8] c"Hardware acceleration methods:\0A\00", align 1
@.str.625 = private unnamed_addr constant [4 x i8] c"%s\0A\00", align 1

; Function Attrs: nounwind uwtable
define internal i32 @show_hwaccels(ptr noundef %0, ptr noundef %1, ptr noundef %2) #0 {
  %4 = alloca ptr, align 8
  %5 = alloca ptr, align 8
  %6 = alloca ptr, align 8
  %7 = alloca i32, align 4
  store ptr %0, ptr %4, align 8, !tbaa !26
  store ptr %1, ptr %5, align 8, !tbaa !23
  store ptr %2, ptr %6, align 8, !tbaa !23
  call void @llvm.lifetime.start.p0(i64 4, ptr %7) #12
  store i32 0, ptr %7, align 4, !tbaa !16
  %8 = call i32 (ptr, ...) @printf(ptr noundef @.str.624)
  br label %9

9:                                                ; preds = %13, %3
  %10 = load i32, ptr %7, align 4, !tbaa !16
  %11 = call i32 @av_hwdevice_iterate_types(i32 noundef %10)
  store i32 %11, ptr %7, align 4, !tbaa !16
  %12 = icmp ne i32 %11, 0
  br i1 %12, label %13, label %17

13:                                               ; preds = %9
  %14 = load i32, ptr %7, align 4, !tbaa !16
  %15 = call ptr @av_hwdevice_get_type_name(i32 noundef %14)
  %16 = call i32 (ptr, ...) @printf(ptr noundef @.str.625, ptr noundef %15)
  br label %9, !llvm.loop !196

17:                                               ; preds = %9
  %18 = call i32 (ptr, ...) @printf(ptr noundef @.str.56)
  call void @llvm.lifetime.end.p0(i64 4, ptr %7) #12
  ret i32 0
}