; Function Attrs: nounwind uwtable
define internal noundef i32 @show_hwaccels(ptr readnone captures(none) %0, ptr readnone captures(none) %1, ptr readnone captures(none) %2) #0 {
  %puts = tail call i32 @puts(ptr nonnull dereferenceable(1) @str)
  %4 = tail call i32 @av_hwdevice_iterate_types(i32 noundef 0) #15
  %.not4 = icmp eq i32 %4, 0
  br i1 %.not4, label %._crit_edge, label %.lr.ph

.lr.ph:                                           ; preds = %3, %.lr.ph
  %5 = phi i32 [ %7, %.lr.ph ], [ %4, %3 ]
  %6 = tail call ptr @av_hwdevice_get_type_name(i32 noundef %5) #15
  %puts3 = tail call i32 @puts(ptr nonnull dereferenceable(1) %6)
  %7 = tail call i32 @av_hwdevice_iterate_types(i32 noundef %5) #15
  %.not = icmp eq i32 %7, 0
  br i1 %.not, label %._crit_edge, label %.lr.ph, !llvm.loop !172

._crit_edge:                                      ; preds = %.lr.ph, %3
  %putchar = tail call i32 @putchar(i32 10)
  ret i32 0
}